target datalayout = "e-m:e-p270:32:32-p271:32:32-p272:64:64-i64:64-i128:128-f80:128-n8:16:32:64-S128"
target triple = "x86_64-pc-linux-gnu"

@.str.502 = private unnamed_addr constant [27 x i8] c"Common Open Policy Service\00", align 1
@.str.503 = private unnamed_addr constant [5 x i8] c"COPS\00", align 1
@.str.504 = private unnamed_addr constant [5 x i8] c"cops\00", align 1
@proto_cops = internal global i32 0, align 4
@cops_handle = internal global ptr null, align 8
@.str.505 = private unnamed_addr constant [10 x i8] c"desegment\00", align 1
@.str.506 = private unnamed_addr constant [56 x i8] c"Reassemble COPS messages spanning multiple TCP segments\00", align 1
@.str.507 = private unnamed_addr constant [205 x i8] c"Whether the COPS dissector should reassemble messages spanning multiple TCP segments. To use this option, you must also enable \22Allow subdissectors to reassemble TCP streams\22 in the TCP protocol settings.\00", align 1
@cops_desegment = internal global i8 1, align 1
@.str.508 = private unnamed_addr constant [12 x i8] c"packetcable\00", align 1
@.str.509 = private unnamed_addr constant [31 x i8] c"Decode for PacketCable clients\00", align 1
@.str.510 = private unnamed_addr constant [71 x i8] c"Decode the COPS messages using PacketCable clients. (Select port 2126)\00", align 1
@cops_packetcable = internal global i8 1, align 1
@.str.511 = private unnamed_addr constant [10 x i8] c"info_pibs\00", align 1
@.str.512 = private unnamed_addr constant [63 x i8] c"PIB settings can be changed in the Name Resolution preferences\00", align 1
@.str.513 = private unnamed_addr constant [12 x i8] c"typefrommib\00", align 1

; Function Attrs: null_pointer_is_valid sspstrong uwtable
define hidden void @proto_register_cops() #0 {
  %1 = alloca ptr, align 8
  %2 = alloca ptr, align 8
  call void @llvm.lifetime.start.p0(i64 8, ptr %1) #13
  call void @llvm.lifetime.start.p0(i64 8, ptr %2) #13
  %3 = call i32 @proto_register_protocol(ptr noundef @.str.502, ptr noundef @.str.503, ptr noundef @.str.504)
  store i32 %3, ptr @proto_cops, align 4
  %4 = load i32, ptr @proto_cops, align 4
  call void @proto_register_field_array(i32 noundef %4, ptr noundef @proto_register_cops.hf, i32 noundef 202)
  call void @proto_register_subtree_array(ptr noundef @proto_register_cops.ett, i32 noundef 17)
  %5 = load i32, ptr @proto_cops, align 4
  %6 = call ptr @expert_register_protocol(i32 noundef %5)
  store ptr %6, ptr %2, align 8
  %7 = load ptr, ptr %2, align 8
  call void @expert_register_field_array(ptr noundef %7, ptr noundef @proto_register_cops.ei, i32 noundef 5)
  %8 = load i32, ptr @proto_cops, align 4
  %9 = call ptr @register_dissector(ptr noundef @.str.504, ptr noundef @dissect_cops, i32 noundef %8)
  store ptr %9, ptr @cops_handle, align 8
  %10 = load i32, ptr @proto_cops, align 4
  %11 = call ptr @prefs_register_protocol(i32 noundef %10, ptr noundef null)
  store ptr %11, ptr %1, align 8
  %12 = load ptr, ptr %1, align 8
  call void @prefs_register_bool_preference(ptr noundef %12, ptr noundef @.str.505, ptr noundef @.str.506, ptr noundef @.str.507, ptr noundef @cops_desegment)
  %13 = load ptr, ptr %1, align 8
  call void @prefs_register_bool_preference(ptr noundef %13, ptr noundef @.str.508, ptr noundef @.str.509, ptr noundef @.str.510, ptr noundef @cops_packetcable)
  %14 = load ptr, ptr %1, align 8
  call void @prefs_register_static_text_preference(ptr noundef %14, ptr noundef @.str.511, ptr noundef @.str.512, ptr noundef @.str.512)
  %15 = load ptr, ptr %1, align 8
  call void @prefs_register_obsolete_preference(ptr noundef %15, ptr noundef @.str.513)
  call void @llvm.lifetime.end.p0(i64 8, ptr %2) #13
  call void @llvm.lifetime.end.p0(i64 8, ptr %1) #13
  ret void
}