; Function Attrs: null_pointer_is_valid sspstrong uwtable
define hidden void @proto_register_cops() local_unnamed_addr #0 {
  %1 = tail call i32 @proto_register_protocol(ptr noundef nonnull @.str.502, ptr noundef nonnull @.str.503, ptr noundef nonnull @.str.504)
  store i32 %1, ptr @proto_cops, align 4
  tail call void @proto_register_field_array(i32 noundef %1, ptr noundef nonnull @proto_register_cops.hf, i32 noundef 202)
  tail call void @proto_register_subtree_array(ptr noundef nonnull @proto_register_cops.ett, i32 noundef 17)
  %2 = load i32, ptr @proto_cops, align 4
  %3 = tail call ptr @expert_register_protocol(i32 noundef %2)
  tail call void @expert_register_field_array(ptr noundef %3, ptr noundef nonnull @proto_register_cops.ei, i32 noundef 5)
  %4 = load i32, ptr @proto_cops, align 4
  %5 = tail call ptr @register_dissector(ptr noundef nonnull @.str.504, ptr noundef nonnull @dissect_cops, i32 noundef %4)
  store ptr %5, ptr @cops_handle, align 8
  %6 = load i32, ptr @proto_cops, align 4
  %7 = tail call ptr @prefs_register_protocol(i32 noundef %6, ptr noundef null)
  tail call void @prefs_register_bool_preference(ptr noundef %7, ptr noundef nonnull @.str.505, ptr noundef nonnull @.str.506, ptr noundef nonnull @.str.507, ptr noundef nonnull @cops_desegment)
  tail call void @prefs_register_bool_preference(ptr noundef %7, ptr noundef nonnull @.str.508, ptr noundef nonnull @.str.509, ptr noundef nonnull @.str.510, ptr noundef nonnull @cops_packetcable)
  tail call void @prefs_register_static_text_preference(ptr noundef %7, ptr noundef nonnull @.str.511, ptr noundef nonnull @.str.512, ptr noundef nonnull @.str.512)
  tail call void @prefs_register_obsolete_preference(ptr noundef %7, ptr noundef nonnull @.str.513)
  ret void
}